; ModuleID = 'source-C-CXX/3/949.cpp'
source_filename = "source-C-CXX/3/949.cpp"
target datalayout = "e-m:e-p270:32:32-p271:32:32-p272:64:64-i64:64-f80:128-n8:16:32:64-S128"
target triple = "x86_64-pc-linux-gnu"

%"class.std::ios_base::Init" = type { i8 }
%"class.std::basic_istream" = type { i32 (...)**, i64, %"class.std::basic_ios" }
%"class.std::basic_ios" = type { %"class.std::ios_base", %"class.std::basic_ostream"*, i8, i8, %"class.std::basic_streambuf"*, %"class.std::ctype"*, %"class.std::num_put"*, %"class.std::num_get"* }
%"class.std::ios_base" = type { i32 (...)**, i64, i64, i32, i32, i32, %"struct.std::ios_base::_Callback_list"*, %"struct.std::ios_base::_Words", [8 x %"struct.std::ios_base::_Words"], i32, %"struct.std::ios_base::_Words"*, %"class.std::locale" }
%"struct.std::ios_base::_Callback_list" = type { %"struct.std::ios_base::_Callback_list"*, void (i32, %"class.std::ios_base"*, i32)*, i32, i32 }
%"struct.std::ios_base::_Words" = type { i8*, i64 }
%"class.std::locale" = type { %"class.std::locale::_Impl"* }
%"class.std::locale::_Impl" = type { i32, %"class.std::locale::facet"**, i64, %"class.std::locale::facet"**, i8** }
%"class.std::locale::facet" = type <{ i32 (...)**, i32, [4 x i8] }>
%"class.std::basic_ostream" = type { i32 (...)**, %"class.std::basic_ios" }
%"class.std::basic_streambuf" = type { i32 (...)**, i8*, i8*, i8*, i8*, i8*, i8*, %"class.std::locale" }
%"class.std::ctype" = type <{ %"class.std::locale::facet.base", [4 x i8], %struct.__locale_struct*, i8, [7 x i8], i32*, i32*, i16*, i8, [256 x i8], [256 x i8], i8, [6 x i8] }>
%"class.std::locale::facet.base" = type <{ i32 (...)**, i32 }>
%struct.__locale_struct = type { [13 x %struct.__locale_data*], i16*, i32*, i32*, [13 x i8*] }
%struct.__locale_data = type opaque
%"class.std::num_put" = type { %"class.std::locale::facet.base", [4 x i8] }
%"class.std::num_get" = type { %"class.std::locale::facet.base", [4 x i8] }

@_ZStL8__ioinit = internal global %"class.std::ios_base::Init" zeroinitializer, align 1
@__dso_handle = external hidden global i8
@_ZSt3cin = external global %"class.std::basic_istream", align 8
@_ZSt4cout = external global %"class.std::basic_ostream", align 8
@llvm.global_ctors = appending global [1 x { i32, void ()*, i8* }] [{ i32, void ()*, i8* } { i32 65535, void ()* @_GLOBAL__sub_I_949.cpp, i8* null }]

declare void @_ZNSt8ios_base4InitC1Ev(%"class.std::ios_base::Init"* nonnull align 1 dereferenceable(1)) unnamed_addr #0

; Function Attrs: nounwind
declare void @_ZNSt8ios_base4InitD1Ev(%"class.std::ios_base::Init"* nonnull align 1 dereferenceable(1)) unnamed_addr #1

; Function Attrs: nofree nounwind
declare i32 @__cxa_atexit(void (i8*)*, i8*, i8*) local_unnamed_addr #2

; Function Attrs: mustprogress norecurse sspstrong uwtable
define dso_local i32 @main() local_unnamed_addr #3 {
  %1 = alloca i32, align 4
  %2 = alloca i32, align 4
  %3 = alloca [110 x [110 x i32]], align 16
  %4 = bitcast i32* %1 to i8*
  call void @llvm.lifetime.start.p0i8(i64 4, i8* nonnull %4) #8
  %5 = bitcast i32* %2 to i8*
  call void @llvm.lifetime.start.p0i8(i64 4, i8* nonnull %5) #8
  %6 = call nonnull align 8 dereferenceable(16) %"class.std::basic_istream"* @_ZNSirsERi(%"class.std::basic_istream"* nonnull align 8 dereferenceable(16) @_ZSt3cin, i32* nonnull align 4 dereferenceable(4) %1)
  %7 = call nonnull align 8 dereferenceable(16) %"class.std::basic_istream"* @_ZNSirsERi(%"class.std::basic_istream"* nonnull align 8 dereferenceable(16) %6, i32* nonnull align 4 dereferenceable(4) %2)
  %8 = bitcast [110 x [110 x i32]]* %3 to i8*
  call void @llvm.lifetime.start.p0i8(i64 48400, i8* nonnull %8) #8
  call void @llvm.memset.p0i8.i64(i8* noundef nonnull align 16 dereferenceable(48400) %8, i8 0, i64 48400, i1 false)
  %9 = load i32, i32* %1, align 4, !tbaa !5
  %10 = icmp sgt i32 %9, 0
  %11 = load i32, i32* %2, align 4, !tbaa !5
  br i1 %10, label %19, label %12

12:                                               ; preds = %36, %0
  %13 = phi i32 [ %9, %0 ], [ %37, %36 ]
  %14 = phi i32 [ %11, %0 ], [ %38, %36 ]
  %15 = add nsw i32 %13, %14
  %16 = icmp sgt i32 %15, -1
  %17 = icmp sgt i32 %13, 0
  %18 = and i1 %16, %17
  br i1 %18, label %42, label %126

19:                                               ; preds = %0, %36
  %20 = phi i32 [ %37, %36 ], [ %9, %0 ]
  %21 = phi i32 [ %38, %36 ], [ %11, %0 ]
  %22 = phi i64 [ %39, %36 ], [ 0, %0 ]
  %23 = icmp sgt i32 %21, 0
  br i1 %23, label %24, label %36

24:                                               ; preds = %19
  %25 = getelementptr inbounds [110 x [110 x i32]], [110 x [110 x i32]]* %3, i64 0, i64 %22, i64 0
  br label %26

26:                                               ; preds = %24, %26
  %27 = phi i32* [ %29, %26 ], [ %25, %24 ]
  %28 = call nonnull align 8 dereferenceable(16) %"class.std::basic_istream"* @_ZNSirsERi(%"class.std::basic_istream"* nonnull align 8 dereferenceable(16) @_ZSt3cin, i32* nonnull align 4 dereferenceable(4) %27)
  %29 = getelementptr inbounds i32, i32* %27, i64 1
  %30 = load i32, i32* %2, align 4, !tbaa !5
  %31 = sext i32 %30 to i64
  %32 = getelementptr inbounds [110 x [110 x i32]], [110 x [110 x i32]]* %3, i64 0, i64 %22, i64 %31
  %33 = icmp ult i32* %29, %32
  br i1 %33, label %26, label %34, !llvm.loop !9

34:                                               ; preds = %26
  %35 = load i32, i32* %1, align 4, !tbaa !5
  br label %36

36:                                               ; preds = %34, %19
  %37 = phi i32 [ %35, %34 ], [ %20, %19 ]
  %38 = phi i32 [ %30, %34 ], [ %21, %19 ]
  %39 = add nuw nsw i64 %22, 1
  %40 = sext i32 %37 to i64
  %41 = icmp slt i64 %39, %40
  br i1 %41, label %19, label %12, !llvm.loop !11

42:                                               ; preds = %12, %120
  %43 = phi i32 [ %121, %120 ], [ %13, %12 ]
  %44 = phi i32 [ %122, %120 ], [ %14, %12 ]
  %45 = phi i32 [ %123, %120 ], [ 0, %12 ]
  %46 = icmp sgt i32 %43, 0
  br i1 %46, label %47, label %120

47:                                               ; preds = %42, %110
  %48 = phi i32 [ %111, %110 ], [ %43, %42 ]
  %49 = phi i32 [ %112, %110 ], [ %44, %42 ]
  %50 = phi i32 [ %113, %110 ], [ %43, %42 ]
  %51 = phi i32 [ %114, %110 ], [ %44, %42 ]
  %52 = phi i32 [ %115, %110 ], [ %44, %42 ]
  %53 = phi i64 [ %116, %110 ], [ 0, %42 ]
  %54 = phi i32 [ %117, %110 ], [ 0, %42 ]
  %55 = icmp sgt i32 %52, 0
  br i1 %55, label %56, label %110

56:                                               ; preds = %47
  %57 = getelementptr inbounds [110 x [110 x i32]], [110 x [110 x i32]]* %3, i64 0, i64 %53, i64 0
  br label %58

58:                                               ; preds = %56, %100
  %59 = phi i32 [ %101, %100 ], [ %49, %56 ]
  %60 = phi i32 [ %102, %100 ], [ %51, %56 ]
  %61 = phi i32 [ %103, %100 ], [ 0, %56 ]
  %62 = phi i32* [ %104, %100 ], [ %57, %56 ]
  %63 = add nuw nsw i32 %61, %54
  %64 = icmp eq i32 %63, %45
  br i1 %64, label %65, label %100

65:                                               ; preds = %58
  %66 = load i32, i32* %62, align 4, !tbaa !5
  %67 = icmp eq i32 %66, 0
  br i1 %67, label %100, label %68

68:                                               ; preds = %65
  %69 = call nonnull align 8 dereferenceable(8) %"class.std::basic_ostream"* @_ZNSolsEi(%"class.std::basic_ostream"* nonnull align 8 dereferenceable(8) @_ZSt4cout, i32 %66)
  %70 = bitcast %"class.std::basic_ostream"* %69 to i8**
  %71 = load i8*, i8** %70, align 8, !tbaa !12
  %72 = getelementptr i8, i8* %71, i64 -24
  %73 = bitcast i8* %72 to i64*
  %74 = load i64, i64* %73, align 8
  %75 = bitcast %"class.std::basic_ostream"* %69 to i8*
  %76 = add nsw i64 %74, 240
  %77 = getelementptr inbounds i8, i8* %75, i64 %76
  %78 = bitcast i8* %77 to %"class.std::ctype"**
  %79 = load %"class.std::ctype"*, %"class.std::ctype"** %78, align 8, !tbaa !14
  %80 = icmp eq %"class.std::ctype"* %79, null
  br i1 %80, label %81, label %82

81:                                               ; preds = %68
  call void @_ZSt16__throw_bad_castv() #9
  unreachable

82:                                               ; preds = %68
  %83 = getelementptr inbounds %"class.std::ctype", %"class.std::ctype"* %79, i64 0, i32 8
  %84 = load i8, i8* %83, align 8, !tbaa !18
  %85 = icmp eq i8 %84, 0
  br i1 %85, label %89, label %86

86:                                               ; preds = %82
  %87 = getelementptr inbounds %"class.std::ctype", %"class.std::ctype"* %79, i64 0, i32 9, i64 10
  %88 = load i8, i8* %87, align 1, !tbaa !20
  br label %95

89:                                               ; preds = %82
  call void @_ZNKSt5ctypeIcE13_M_widen_initEv(%"class.std::ctype"* nonnull align 8 dereferenceable(570) %79)
  %90 = bitcast %"class.std::ctype"* %79 to i8 (%"class.std::ctype"*, i8)***
  %91 = load i8 (%"class.std::ctype"*, i8)**, i8 (%"class.std::ctype"*, i8)*** %90, align 8, !tbaa !12
  %92 = getelementptr inbounds i8 (%"class.std::ctype"*, i8)*, i8 (%"class.std::ctype"*, i8)** %91, i64 6
  %93 = load i8 (%"class.std::ctype"*, i8)*, i8 (%"class.std::ctype"*, i8)** %92, align 8
  %94 = call signext i8 %93(%"class.std::ctype"* nonnull align 8 dereferenceable(570) %79, i8 signext 10)
  br label %95

95:                                               ; preds = %86, %89
  %96 = phi i8 [ %88, %86 ], [ %94, %89 ]
  %97 = call nonnull align 8 dereferenceable(8) %"class.std::basic_ostream"* @_ZNSo3putEc(%"class.std::basic_ostream"* nonnull align 8 dereferenceable(8) %69, i8 signext %96)
  %98 = call nonnull align 8 dereferenceable(8) %"class.std::basic_ostream"* @_ZNSo5flushEv(%"class.std::basic_ostream"* nonnull align 8 dereferenceable(8) %97)
  %99 = load i32, i32* %2, align 4, !tbaa !5
  br label %100

100:                                              ; preds = %58, %65, %95
  %101 = phi i32 [ %59, %58 ], [ %59, %65 ], [ %99, %95 ]
  %102 = phi i32 [ %60, %58 ], [ %60, %65 ], [ %99, %95 ]
  %103 = add nuw nsw i32 %61, 1
  %104 = getelementptr inbounds i32, i32* %62, i64 1
  %105 = sext i32 %102 to i64
  %106 = getelementptr inbounds [110 x [110 x i32]], [110 x [110 x i32]]* %3, i64 0, i64 %53, i64 %105
  %107 = icmp ult i32* %104, %106
  br i1 %107, label %58, label %108, !llvm.loop !21

108:                                              ; preds = %100
  %109 = load i32, i32* %1, align 4, !tbaa !5
  br label %110

110:                                              ; preds = %108, %47
  %111 = phi i32 [ %109, %108 ], [ %48, %47 ]
  %112 = phi i32 [ %101, %108 ], [ %49, %47 ]
  %113 = phi i32 [ %109, %108 ], [ %50, %47 ]
  %114 = phi i32 [ %102, %108 ], [ %51, %47 ]
  %115 = phi i32 [ %102, %108 ], [ %52, %47 ]
  %116 = add nuw nsw i64 %53, 1
  %117 = add nuw nsw i32 %54, 1
  %118 = sext i32 %113 to i64
  %119 = icmp slt i64 %116, %118
  br i1 %119, label %47, label %120, !llvm.loop !22

120:                                              ; preds = %110, %42
  %121 = phi i32 [ %43, %42 ], [ %111, %110 ]
  %122 = phi i32 [ %44, %42 ], [ %112, %110 ]
  %123 = add nuw nsw i32 %45, 1
  %124 = add nsw i32 %121, %122
  %125 = icmp slt i32 %45, %124
  br i1 %125, label %42, label %126, !llvm.loop !23

126:                                              ; preds = %120, %12
  call void @llvm.lifetime.end.p0i8(i64 48400, i8* nonnull %8) #8
  call void @llvm.lifetime.end.p0i8(i64 4, i8* nonnull %5) #8
  call void @llvm.lifetime.end.p0i8(i64 4, i8* nonnull %4) #8
  ret i32 0
}

; Function Attrs: argmemonly mustprogress nofree nosync nounwind willreturn
declare void @llvm.lifetime.start.p0i8(i64 immarg, i8* nocapture) #4

declare nonnull align 8 dereferenceable(16) %"class.std::basic_istream"* @_ZNSirsERi(%"class.std::basic_istream"* nonnull align 8 dereferenceable(16), i32* nonnull align 4 dereferenceable(4)) local_unnamed_addr #0

; Function Attrs: argmemonly mustprogress nofree nounwind willreturn writeonly
declare void @llvm.memset.p0i8.i64(i8* nocapture writeonly, i8, i64, i1 immarg) #5

declare nonnull align 8 dereferenceable(8) %"class.std::basic_ostream"* @_ZNSolsEi(%"class.std::basic_ostream"* nonnull align 8 dereferenceable(8), i32) local_unnamed_addr #0

; Function Attrs: argmemonly mustprogress nofree nosync nounwind willreturn
declare void @llvm.lifetime.end.p0i8(i64 immarg, i8* nocapture) #4

declare nonnull align 8 dereferenceable(8) %"class.std::basic_ostream"* @_ZNSo3putEc(%"class.std::basic_ostream"* nonnull align 8 dereferenceable(8), i8 signext) local_unnamed_addr #0

declare nonnull align 8 dereferenceable(8) %"class.std::basic_ostream"* @_ZNSo5flushEv(%"class.std::basic_ostream"* nonnull align 8 dereferenceable(8)) local_unnamed_addr #0

; Function Attrs: noreturn
declare void @_ZSt16__throw_bad_castv() local_unnamed_addr #6

declare void @_ZNKSt5ctypeIcE13_M_widen_initEv(%"class.std::ctype"* nonnull align 8 dereferenceable(570)) local_unnamed_addr #0

; Function Attrs: sspstrong uwtable
define internal void @_GLOBAL__sub_I_949.cpp() #7 section ".text.startup" {
  tail call void @_ZNSt8ios_base4InitC1Ev(%"class.std::ios_base::Init"* nonnull align 1 dereferenceable(1) @_ZStL8__ioinit)
  %1 = tail call i32 @__cxa_atexit(void (i8*)* bitcast (void (%"class.std::ios_base::Init"*)* @_ZNSt8ios_base4InitD1Ev to void (i8*)*), i8* getelementptr inbounds (%"class.std::ios_base::Init", %"class.std::ios_base::Init"* @_ZStL8__ioinit, i64 0, i32 0), i8* nonnull @__dso_handle) #8
  ret void
}


!llvm.module.flags = !{!0, !1, !2, !3}
!llvm.ident = !{!4}

!0 = !{i32 1, !"wchar_size", i32 4}
!1 = !{i32 7, !"PIC Level", i32 2}
!2 = !{i32 7, !"PIE Level", i32 2}
!3 = !{i32 7, !"uwtable", i32 1}
!4 = !{!"clang version 13.0.0"}
!5 = !{!6, !6, i64 0}
!6 = !{!"int", !7, i64 0}
!7 = !{!"omnipotent char", !8, i64 0}
!8 = !{!"Simple C++ TBAA"}
!9 = distinct !{!9, !10}
!10 = !{!"llvm.loop.mustprogress"}
!11 = distinct !{!11, !10}
!12 = !{!13, !13, i64 0}
!13 = !{!"vtable pointer", !8, i64 0}
!14 = !{!15, !16, i64 240}
!15 = !{!"_ZTSSt9basic_iosIcSt11char_traitsIcEE", !16, i64 216, !7, i64 224, !17, i64 225, !16, i64 232, !16, i64 240, !16, i64 248, !16, i64 256}
!16 = !{!"any pointer", !7, i64 0}
!17 = !{!"bool", !7, i64 0}
!18 = !{!19, !7, i64 56}
!19 = !{!"_ZTSSt5ctypeIcE", !16, i64 16, !17, i64 24, !16, i64 32, !16, i64 40, !16, i64 48, !7, i64 56, !7, i64 57, !7, i64 313, !7, i64 569}
!20 = !{!7, !7, i64 0}
!21 = distinct !{!21, !10}
!22 = distinct !{!22, !10}
!23 = distinct !{!23, !10, !24}
!24 = !{!"llvm.loop.unswitch.partial.disable"}
